S'01\t6\n02\t4\n03\t4\n04\t1\n05\t4\n06\t3\n07\t3\n08\t8\n09\t5\n10\t5\n11\t6\n12\t3\n13\t8\n14\t7\n15\t5\n16\t5\n17\t4\n18\t7\n19\t8\n20\t10\n21\t4\n22\t9\n23\t5\n24\t5\n25\t5\n26\t4\n27\t6\n28\t9\n29\t5\n30\t5\n31\t7\n32\t6\n33\t4\n'
p0
.