S'01\t6\n02\t5\n03\t3\n04\t1\n05\t4\n06\t3\n07\t3\n08\t8\n09\t5\n10\t4\n11\t5\n12\t3\n13\t7\n14\t8\n15\t6\n16\t5\n17\t4\n18\t7\n19\t7\n20\t11\n21\t4\n22\t8\n23\t5\n24\t6\n25\t5\n26\t3\n27\t7\n28\t8\n29\t7\n30\t4\n31\t7\n32\t7\n33\t4\n'
p0
.